target datalayout = "e-m:e-p270:32:32-p271:32:32-p272:64:64-i64:64-i128:128-f80:128-n8:16:32:64-S128"
target triple = "x86_64-pc-linux-gnu"

%struct.AVFormatContext = type { ptr, ptr, ptr, ptr, ptr, i32, i32, ptr, i32, ptr, i32, ptr, ptr, i64, i64, i64, i32, i32, i32, i64, i64, ptr, i32, i32, ptr, i32, i32, i32, i32, ptr, i64, i32, i32, %struct.AVIOInterruptCB, i32, i32, i32, i32, i64, i32, i32, i32, i32, i32, i32, i32, i32, i32, i32, i32, i32, i64, i32, i32, i32, i32, i32, ptr, ptr, ptr, ptr, i32, ptr, ptr, ptr, ptr, i32, ptr, ptr, i64, ptr, ptr, ptr, i64 }
%struct.AVIOInterruptCB = type { ptr, ptr }
%struct.V4L2Context = type { ptr, i32 }
%struct.AVPacket = type { ptr, i64, i64, ptr, i32, i32, i32, ptr, i32, i64, i64, ptr, ptr, %struct.AVRational }
%struct.AVRational = type { i32, i32 }

; Function Attrs: nounwind uwtable
define internal i32 @write_packet(ptr noundef %0, ptr noundef %1) #1 {
  %3 = alloca i32, align 4
  %4 = alloca ptr, align 8
  %5 = alloca ptr, align 8
  %6 = alloca ptr, align 8
  %7 = alloca i32, align 4
  store ptr %0, ptr %4, align 8, !tbaa !4
  store ptr %1, ptr %5, align 8, !tbaa !52
  call void @llvm.lifetime.start.p0(i64 8, ptr %6) #8
  %8 = load ptr, ptr %4, align 8, !tbaa !4
  %9 = getelementptr inbounds nuw %struct.AVFormatContext, ptr %8, i32 0, i32 3
  %10 = load ptr, ptr %9, align 8, !tbaa !11
  store ptr %10, ptr %6, align 8, !tbaa !27
  %11 = load ptr, ptr %6, align 8, !tbaa !27
  %12 = getelementptr inbounds nuw %struct.V4L2Context, ptr %11, i32 0, i32 1
  %13 = load i32, ptr %12, align 8, !tbaa !30
  %14 = load ptr, ptr %5, align 8, !tbaa !52
  %15 = getelementptr inbounds nuw %struct.AVPacket, ptr %14, i32 0, i32 3
  %16 = load ptr, ptr %15, align 8, !tbaa !54
  %17 = load ptr, ptr %5, align 8, !tbaa !52
  %18 = getelementptr inbounds nuw %struct.AVPacket, ptr %17, i32 0, i32 4
  %19 = load i32, ptr %18, align 8, !tbaa !55
  %20 = sext i32 %19 to i64
  %21 = call i64 @write(i32 noundef %13, ptr noundef %16, i64 noundef %20)
  %22 = icmp eq i64 %21, -1
  br i1 %22, label %23, label %27

23:                                               ; preds = %2
  %24 = call ptr @__errno_location() #9
  %25 = load i32, ptr %24, align 4, !tbaa !9
  %26 = sub nsw i32 0, %25
  store i32 %26, ptr %3, align 4
  store i32 1, ptr %7, align 4
  br label %28

27:                                               ; preds = %2
  store i32 0, ptr %3, align 4
  store i32 1, ptr %7, align 4
  br label %28

28:                                               ; preds = %27, %23
  call void @llvm.lifetime.end.p0(i64 8, ptr %6) #8
  %29 = load i32, ptr %3, align 4
  ret i32 %29
}