; Function Attrs: nofree nounwind uwtable
define internal range(i32 -2147483647, -2147483648) i32 @write_packet(ptr noundef readonly captures(none) %0, ptr noundef readonly captures(none) %1) #1 {
  %3 = getelementptr inbounds nuw i8, ptr %0, i64 24
  %4 = load ptr, ptr %3, align 8, !tbaa !4
  %5 = getelementptr inbounds nuw i8, ptr %4, i64 8
  %6 = load i32, ptr %5, align 8, !tbaa !26
  %7 = getelementptr inbounds nuw i8, ptr %1, i64 24
  %8 = load ptr, ptr %7, align 8, !tbaa !48
  %9 = getelementptr inbounds nuw i8, ptr %1, i64 32
  %10 = load i32, ptr %9, align 8, !tbaa !49
  %11 = sext i32 %10 to i64
  %12 = tail call i64 @write(i32 noundef %6, ptr noundef %8, i64 noundef %11) #9
  %13 = icmp eq i64 %12, -1
  br i1 %13, label %14, label %18

14:                                               ; preds = %2
  %15 = tail call ptr @__errno_location() #10
  %16 = load i32, ptr %15, align 4, !tbaa !28
  %17 = sub nsw i32 0, %16
  br label %18

18:                                               ; preds = %2, %14
  %.0 = phi i32 [ %17, %14 ], [ 0, %2 ]
  ret i32 %.0
}